Certificate:
    Data:
        Version: 3 (0x2)
        Serial Number: 1 (0x1)
        Signature Algorithm: sha256WithRSAEncryption
        Issuer: O=Test Org, CN=Test Org rauc CA Development
        Validity
            Not Before: Jan  1 00:00:00 1970 GMT
            Not After : Dec 31 23:59:59 9999 GMT
        Subject: O=Test Org, CN=Test Org rauc CA Development
        Subject Public Key Info:
            Public Key Algorithm: rsaEncryption
                RSA Public-Key: (2048 bit)
                Modulus:
                    00:dc:00:27:aa:3d:5c:c7:56:9b:ae:fd:e0:e2:64:
                    23:33:43:11:c3:39:cc:b3:5f:30:26:8c:d5:f2:75:
                    df:24:ea:2b:68:95:e2:cb:a4:b2:c2:9d:8d:76:c5:
                    6e:45:1a:28:7f:06:1e:99:4a:b4:01:4d:95:48:b2:
                    b0:8e:ca:0d:0f:13:c7:fe:38:1f:55:2e:07:7f:ab:
                    ee:82:7b:28:80:16:8f:55:3c:29:8f:f6:8b:ee:b4:
                    19:65:d6:40:d4:40:96:84:f4:93:8d:0c:82:e7:55:
                    60:5f:5c:0c:54:64:68:06:3a:56:7e:78:7e:84:f2:
                    fa:79:92:6b:cf:7b:19:bc:eb:19:6d:38:93:11:63:
                    0d:0e:74:60:6e:ea:5f:09:19:f4:52:c7:6a:9b:91:
                    74:83:15:ff:6c:74:c1:10:b9:63:0c:42:93:e4:ac:
                    db:b7:f1:8c:59:a9:d5:ee:9a:c3:42:16:f5:43:90:
                    6d:7f:45:5f:fd:f7:66:e3:c8:a3:e0:60:db:52:a2:
                    fe:c9:25:fd:bc:43:c4:e0:6f:1f:3e:9c:9e:6d:d7:
                    ae:90:da:f8:5e:2d:84:89:55:d7:6c:0b:71:7a:a5:
                    1d:95:bb:9a:a4:3a:54:4d:7b:53:e9:7d:7a:2f:f5:
                    de:45:d7:08:64:bf:f9:40:0c:34:ed:67:fc:58:8a:
                    79:af
                Exponent: 65537 (0x10001)
        X509v3 extensions:
            X509v3 Subject Key Identifier: 
                2D:01:E5:6A:93:AF:07:E6:50:22:4E:A7:B5:D0:95:CC:F0:BA:14:E8
            X509v3 Authority Key Identifier: 
                keyid:2D:01:E5:6A:93:AF:07:E6:50:22:4E:A7:B5:D0:95:CC:F0:BA:14:E8
                DirName:/O=Test Org/CN=Test Org rauc CA Development
                serial:01

            X509v3 Basic Constraints: 
                CA:TRUE
    Signature Algorithm: sha256WithRSAEncryption
         d4:dd:71:0d:36:94:5f:0f:59:ca:c2:4a:f3:c9:9a:6a:55:ef:
         4e:7e:ea:f9:a6:df:ab:8b:0a:5a:5e:01:99:dd:94:9a:bd:7a:
         6a:e5:cd:39:a9:1d:1a:b5:ee:9f:81:1b:40:ec:74:4f:92:76:
         3a:e8:00:51:e4:3d:0c:e0:27:fe:fc:f7:91:04:0b:09:44:57:
         39:14:40:fb:86:a1:4c:a4:00:88:55:b0:31:0d:fc:09:5f:f5:
         d6:e9:be:c9:53:c9:6a:50:90:40:36:5d:0f:60:a4:60:53:71:
         0a:b6:24:a4:cc:51:86:0c:e6:4f:1b:ff:3d:49:b9:d6:88:f7:
         bf:81:90:2e:e5:c1:55:1f:b6:75:ba:48:5f:70:20:ad:be:29:
         c9:d6:c3:14:ab:7a:0e:e8:11:8e:25:a4:0c:b2:2d:21:1e:51:
         bd:45:a6:02:fb:b5:b5:ea:bd:67:07:91:bf:85:0e:58:57:8c:
         4e:04:31:23:29:1a:c3:18:a3:cb:61:84:45:fd:fd:1f:97:dd:
         bf:9d:aa:6a:68:21:d0:b8:39:9c:33:47:8e:96:2b:28:a5:5e:
         61:4a:2c:da:44:99:a4:66:cb:3f:6d:9b:bd:85:92:17:9d:89:
         8c:af:24:d8:ec:64:1a:bb:03:67:b2:20:4d:6f:89:b4:92:72:
         18:92:21:95
-----BEGIN CERTIFICATE-----
MIIDhjCCAm6gAwIBAgIBATANBgkqhkiG9w0BAQsFADA6MREwDwYDVQQKDAhUZXN0
IE9yZzElMCMGA1UEAwwcVGVzdCBPcmcgcmF1YyBDQSBEZXZlbG9wbWVudDAgFw03
MDAxMDEwMDAwMDBaGA85OTk5MTIzMTIzNTk1OVowOjERMA8GA1UECgwIVGVzdCBP
cmcxJTAjBgNVBAMMHFRlc3QgT3JnIHJhdWMgQ0EgRGV2ZWxvcG1lbnQwggEiMA0G
CSqGSIb3DQEBAQUAA4IBDwAwggEKAoIBAQDcACeqPVzHVpuu/eDiZCMzQxHDOcyz
XzAmjNXydd8k6itoleLLpLLCnY12xW5FGih/Bh6ZSrQBTZVIsrCOyg0PE8f+OB9V
Lgd/q+6CeyiAFo9VPCmP9ovutBll1kDUQJaE9JONDILnVWBfXAxUZGgGOlZ+eH6E
8vp5kmvPexm86xltOJMRYw0OdGBu6l8JGfRSx2qbkXSDFf9sdMEQuWMMQpPkrNu3
8YxZqdXumsNCFvVDkG1/RV/992bjyKPgYNtSov7JJf28Q8Tgbx8+nJ5t166Q2vhe
LYSJVddsC3F6pR2Vu5qkOlRNe1PpfXov9d5F1whkv/lADDTtZ/xYinmvAgMBAAGj
gZQwgZEwHQYDVR0OBBYEFC0B5WqTrwfmUCJOp7XQlczwuhToMGIGA1UdIwRbMFmA
FC0B5WqTrwfmUCJOp7XQlczwuhTooT6kPDA6MREwDwYDVQQKDAhUZXN0IE9yZzEl
MCMGA1UEAwwcVGVzdCBPcmcgcmF1YyBDQSBEZXZlbG9wbWVudIIBATAMBgNVHRME
BTADAQH/MA0GCSqGSIb3DQEBCwUAA4IBAQDU3XENNpRfD1nKwkrzyZpqVe9Ofur5
pt+riwpaXgGZ3ZSavXpq5c05qR0ate6fgRtA7HRPknY66ABR5D0M4Cf+/PeRBAsJ
RFc5FED7hqFMpACIVbAxDfwJX/XW6b7JU8lqUJBANl0PYKRgU3EKtiSkzFGGDOZP
G/89SbnWiPe/gZAu5cFVH7Z1ukhfcCCtvinJ1sMUq3oO6BGOJaQMsi0hHlG9RaYC
+7W16r1nB5G/hQ5YV4xOBDEjKRrDGKPLYYRF/f0fl92/napqaCHQuDmcM0eOliso
pV5hSizaRJmkZss/bZu9hZIXnYmMryTY7GQauwNnsiBNb4m0knIYkiGV
-----END CERTIFICATE-----
