Certificate:
    Data:
        Version: 3 (0x2)
        Serial Number: 2 (0x2)
        Signature Algorithm: sha256WithRSAEncryption
        Issuer: O=Test Org, CN=Test Org rauc CA Development
        Validity
            Not Before: Jan  1 00:00:00 1970 GMT
            Not After : Dec 31 23:59:59 9999 GMT
        Subject: O=Test Org, CN=Test Org Development-1
        Subject Public Key Info:
            Public Key Algorithm: rsaEncryption
                RSA Public-Key: (2048 bit)
                Modulus:
                    00:b3:b9:6b:10:cb:9d:8e:4c:f2:7b:de:68:e2:3f:
                    1c:36:64:1e:5d:54:93:07:bd:e2:9f:57:b0:1a:b8:
                    3d:43:cf:63:0c:f5:0b:7f:d5:e2:64:1a:69:b3:df:
                    56:b0:b6:8f:73:18:a4:23:27:1d:5d:bf:fe:e9:25:
                    3f:d7:92:be:18:1a:7a:03:5c:e4:1d:a0:00:70:d7:
                    42:49:50:ce:34:34:8d:33:fd:32:f4:c0:75:f0:b7:
                    c3:41:21:44:a5:be:6d:1d:ba:2b:43:10:02:a0:ee:
                    cd:24:c9:75:dc:b3:1b:7f:4d:90:5c:5d:9a:31:fa:
                    63:98:2c:ee:42:88:1c:36:6e:bc:d4:60:11:20:2b:
                    b7:cf:f8:d4:9f:22:d1:4a:4b:a6:13:be:1a:e3:fa:
                    70:87:c4:fb:6d:40:1d:ae:70:93:f4:e3:cb:18:b9:
                    a9:86:9d:ef:6d:6b:5e:24:68:19:74:c1:40:ce:36:
                    13:7c:3c:63:d7:1e:07:30:37:41:12:4c:70:15:81:
                    fc:db:81:9d:94:5b:a2:20:f4:de:f2:df:b9:67:f7:
                    49:83:8b:e7:b4:6a:83:03:f0:55:d3:18:5b:04:29:
                    0e:bb:c2:27:b7:0c:0f:39:23:1b:28:1f:eb:98:ca:
                    b3:59:83:f6:8b:fe:3b:54:24:cc:29:a9:0e:a4:87:
                    1b:95
                Exponent: 65537 (0x10001)
        X509v3 extensions:
            X509v3 Subject Key Identifier: 
                C5:55:B3:80:E3:E1:21:8E:1E:BB:D5:9C:7D:39:DE:9A:20:25:A5:F8
            X509v3 Authority Key Identifier: 
                keyid:2D:01:E5:6A:93:AF:07:E6:50:22:4E:A7:B5:D0:95:CC:F0:BA:14:E8
                DirName:/O=Test Org/CN=Test Org rauc CA Development
                serial:01

            X509v3 Basic Constraints: 
                CA:FALSE
    Signature Algorithm: sha256WithRSAEncryption
         d7:9a:f9:5c:46:9d:f5:6b:5f:d3:db:02:84:19:6e:74:50:07:
         55:d3:24:14:ec:1c:f8:6d:5e:46:6d:4c:b5:f6:3d:90:bd:8a:
         b5:af:12:29:d9:84:32:50:16:1f:46:06:28:af:41:fd:d2:21:
         6c:fe:71:9f:1b:19:d0:53:48:d3:16:b0:e9:4d:30:ef:fd:2a:
         a8:a3:a8:87:76:75:41:26:8a:27:1a:06:45:31:61:c3:2f:30:
         9f:1e:ed:e5:19:f0:48:dc:6f:2a:8b:fa:db:17:5e:8c:8f:0b:
         ff:f4:59:c5:75:36:3a:b1:0b:47:e9:9e:e8:96:ac:9f:47:fd:
         90:23:fa:eb:f7:00:11:26:da:0d:fe:97:8f:d6:88:7e:10:49:
         33:b4:1f:5a:54:18:f6:df:eb:68:bd:ff:c4:23:c1:c5:58:2f:
         30:c0:b6:d9:0d:c1:df:c4:19:d0:34:45:5f:38:22:0c:f6:9b:
         14:90:2f:5a:f4:ee:f4:12:8c:2a:24:38:22:2b:e9:88:43:0e:
         d0:f3:d7:72:3d:5e:d4:90:d6:a5:e7:72:e1:0a:48:a5:7c:2f:
         9c:4a:44:62:a3:b6:07:4d:5c:a2:35:bd:07:0f:e4:7c:d9:6d:
         e7:49:98:3a:d7:a1:3c:44:6f:53:db:7f:09:8a:28:63:60:05:
         c4:59:eb:c5
-----BEGIN CERTIFICATE-----
MIIDfTCCAmWgAwIBAgIBAjANBgkqhkiG9w0BAQsFADA6MREwDwYDVQQKDAhUZXN0
IE9yZzElMCMGA1UEAwwcVGVzdCBPcmcgcmF1YyBDQSBEZXZlbG9wbWVudDAgFw03
MDAxMDEwMDAwMDBaGA85OTk5MTIzMTIzNTk1OVowNDERMA8GA1UECgwIVGVzdCBP
cmcxHzAdBgNVBAMMFlRlc3QgT3JnIERldmVsb3BtZW50LTEwggEiMA0GCSqGSIb3
DQEBAQUAA4IBDwAwggEKAoIBAQCzuWsQy52OTPJ73mjiPxw2ZB5dVJMHveKfV7Aa
uD1Dz2MM9Qt/1eJkGmmz31awto9zGKQjJx1dv/7pJT/Xkr4YGnoDXOQdoABw10JJ
UM40NI0z/TL0wHXwt8NBIUSlvm0duitDEAKg7s0kyXXcsxt/TZBcXZox+mOYLO5C
iBw2brzUYBEgK7fP+NSfItFKS6YTvhrj+nCHxPttQB2ucJP048sYuamGne9ta14k
aBl0wUDONhN8PGPXHgcwN0ESTHAVgfzbgZ2UW6Ig9N7y37ln90mDi+e0aoMD8FXT
GFsEKQ67wie3DA85IxsoH+uYyrNZg/aL/jtUJMwpqQ6khxuVAgMBAAGjgZEwgY4w
HQYDVR0OBBYEFMVVs4Dj4SGOHrvVnH053pogJaX4MGIGA1UdIwRbMFmAFC0B5WqT
rwfmUCJOp7XQlczwuhTooT6kPDA6MREwDwYDVQQKDAhUZXN0IE9yZzElMCMGA1UE
AwwcVGVzdCBPcmcgcmF1YyBDQSBEZXZlbG9wbWVudIIBATAJBgNVHRMEAjAAMA0G
CSqGSIb3DQEBCwUAA4IBAQDXmvlcRp31a1/T2wKEGW50UAdV0yQU7Bz4bV5GbUy1
9j2QvYq1rxIp2YQyUBYfRgYor0H90iFs/nGfGxnQU0jTFrDpTTDv/Sqoo6iHdnVB
JoonGgZFMWHDLzCfHu3lGfBI3G8qi/rbF16Mjwv/9FnFdTY6sQtH6Z7olqyfR/2Q
I/rr9wARJtoN/peP1oh+EEkztB9aVBj23+tovf/EI8HFWC8wwLbZDcHfxBnQNEVf
OCIM9psUkC9a9O70EowqJDgiK+mIQw7Q89dyPV7UkNal53LhCkilfC+cSkRio7YH
TVyiNb0HD+R82W3nSZg616E8RG9T238JiihjYAXEWevF
-----END CERTIFICATE-----
